; Function Attrs: mustprogress nofree norecurse nosync nounwind willreturn memory(argmem: readwrite) uwtable
define internal void @fn_enter(ptr noundef captures(none) %0) #8 {
  %2 = getelementptr inbounds nuw i8, ptr %0, i64 48
  %3 = load i32, ptr %2, align 8
  %.not = icmp eq i32 %3, 0
  br i1 %.not, label %5, label %4

4:                                                ; preds = %1
  tail call fastcc void @put_utf8(ptr noundef nonnull %0, i32 noundef %3)
  store i32 0, ptr %2, align 8
  br label %5

5:                                                ; preds = %4, %1
  ret void
}